; Function Attrs: mustprogress uwtable
define hidden noundef zeroext i1 @_ZN18OpenImageIO_v2_6_03pvt17TextureSystemImpl7textureENS_7ustringERNS_10TextureOptEffffffiPfS5_S5_(ptr noundef nonnull align 8 dereferenceable(184) %this, ptr nocapture noundef readonly %filename, ptr noundef nonnull align 8 dereferenceable(104) %options, float noundef %s, float noundef %t, float noundef %dsdx, float noundef %dtdx, float noundef %dsdy, float noundef %dtdy, i32 noundef %nchannels, ptr noundef %result, ptr noundef %dresultds, ptr noundef %dresultdt) unnamed_addr #5 align 2 personality ptr @__gxx_personality_v0 {
entry:
  %agg.tmp.i = alloca %"class.OpenImageIO_v2_6_0::ustring", align 8
  %m_imagecache = getelementptr inbounds i8, ptr %this, i64 8
  %0 = load ptr, ptr %m_imagecache, align 8
  %call = tail call noundef ptr @_ZN18OpenImageIO_v2_6_03pvt14ImageCacheImpl18get_perthread_infoEPNS0_23ImageCachePerThreadInfoE(ptr noundef nonnull align 64 dereferenceable(25280) %0, ptr noundef null)
  %1 = load ptr, ptr %filename, align 8
  call void @llvm.lifetime.start.p0(i64 8, ptr nonnull %agg.tmp.i)
  %2 = load ptr, ptr %m_imagecache, align 8
  store ptr %1, ptr %agg.tmp.i, align 8
  %call.i2 = call noundef ptr @_ZN18OpenImageIO_v2_6_03pvt14ImageCacheImpl9find_fileENS_7ustringEPNS0_23ImageCachePerThreadInfoEPFPNS_10ImageInputEvEPKNS_9ImageSpecEb(ptr noundef nonnull align 64 dereferenceable(25280) %2, ptr noundef nonnull %agg.tmp.i, ptr noundef %call, ptr noundef null, ptr noundef null, i1 noundef zeroext false)
  call void @llvm.lifetime.end.p0(i64 8, ptr nonnull %agg.tmp.i)
  %call3 = call noundef zeroext i1 @_ZN18OpenImageIO_v2_6_03pvt17TextureSystemImpl7textureEPNS_13TextureSystem13TextureHandleEPNS2_9PerthreadERNS_10TextureOptEffffffiPfS9_S9_(ptr noundef nonnull align 8 dereferenceable(184) %this, ptr noundef %call.i2, ptr noundef %call, ptr noundef nonnull align 8 dereferenceable(104) %options, float noundef %s, float noundef %t, float noundef %dsdx, float noundef %dtdx, float noundef %dsdy, float noundef %dtdy, i32 noundef %nchannels, ptr noundef %result, ptr noundef %dresultds, ptr noundef %dresultdt)
  ret i1 %call3
}